; Function Attrs: inlinehint mustprogress nounwind uwtable
define internal fastcc void @_ZN3gmx15analysismodules12_GLOBAL__N_111DsspStorageD2Ev(ptr noundef nonnull readonly align 8 captures(none) dereferenceable(24) %0) unnamed_addr #7 align 2 personality ptr @__gxx_personality_v0 {
  %2 = load ptr, ptr %0, align 8, !tbaa !80
  %3 = getelementptr inbounds nuw i8, ptr %0, i64 8
  %4 = load ptr, ptr %3, align 8, !tbaa !81
  %.not4.i.i.i.i = icmp eq ptr %2, %4
  br i1 %.not4.i.i.i.i, label %_ZSt8_DestroyIPN3gmx15analysismodules12_GLOBAL__N_116DsspStorageFrameES3_EvT_S5_RSaIT0_E.exit.i, label %.lr.ph.i.i.i.i

.lr.ph.i.i.i.i:                                   ; preds = %1, %_ZSt8_DestroyIN3gmx15analysismodules12_GLOBAL__N_116DsspStorageFrameEEvPT_.exit.i.i.i.i
  %.05.i.i.i.i = phi ptr [ %14, %_ZSt8_DestroyIN3gmx15analysismodules12_GLOBAL__N_116DsspStorageFrameEEvPT_.exit.i.i.i.i ], [ %2, %1 ]
  %5 = getelementptr inbounds nuw i8, ptr %.05.i.i.i.i, i64 8
  %6 = load ptr, ptr %5, align 8, !tbaa !76
  %7 = getelementptr inbounds nuw i8, ptr %.05.i.i.i.i, i64 24
  %8 = icmp eq ptr %6, %7
  br i1 %8, label %_ZNKSt7__cxx1112basic_stringIcSt11char_traitsIcESaIcEE11_M_is_localEv.exit.thread.i.i.i.i.i.i.i.i, label %_ZNKSt7__cxx1112basic_stringIcSt11char_traitsIcESaIcEE11_M_is_localEv.exit.i.i.i.i.i.i.i.i

_ZNKSt7__cxx1112basic_stringIcSt11char_traitsIcESaIcEE11_M_is_localEv.exit.thread.i.i.i.i.i.i.i.i: ; preds = %.lr.ph.i.i.i.i
  %9 = getelementptr inbounds nuw i8, ptr %.05.i.i.i.i, i64 16
  %10 = load i64, ptr %9, align 8, !tbaa !69
  %11 = icmp ult i64 %10, 16
  tail call void @llvm.assume(i1 %11)
  br label %_ZSt8_DestroyIN3gmx15analysismodules12_GLOBAL__N_116DsspStorageFrameEEvPT_.exit.i.i.i.i

_ZNKSt7__cxx1112basic_stringIcSt11char_traitsIcESaIcEE11_M_is_localEv.exit.i.i.i.i.i.i.i.i: ; preds = %.lr.ph.i.i.i.i
  %12 = load i64, ptr %7, align 8, !tbaa !70
  %13 = add i64 %12, 1
  tail call void @_ZdlPvm(ptr noundef %6, i64 noundef %13) #32
  br label %_ZSt8_DestroyIN3gmx15analysismodules12_GLOBAL__N_116DsspStorageFrameEEvPT_.exit.i.i.i.i

_ZSt8_DestroyIN3gmx15analysismodules12_GLOBAL__N_116DsspStorageFrameEEvPT_.exit.i.i.i.i: ; preds = %_ZNKSt7__cxx1112basic_stringIcSt11char_traitsIcESaIcEE11_M_is_localEv.exit.i.i.i.i.i.i.i.i, %_ZNKSt7__cxx1112basic_stringIcSt11char_traitsIcESaIcEE11_M_is_localEv.exit.thread.i.i.i.i.i.i.i.i
  %14 = getelementptr inbounds nuw i8, ptr %.05.i.i.i.i, i64 40
  %.not.i.i.i.i = icmp eq ptr %14, %4
  br i1 %.not.i.i.i.i, label %_ZSt8_DestroyIPN3gmx15analysismodules12_GLOBAL__N_116DsspStorageFrameES3_EvT_S5_RSaIT0_E.exitthread-pre-split.i, label %.lr.ph.i.i.i.i, !llvm.loop !82

_ZSt8_DestroyIPN3gmx15analysismodules12_GLOBAL__N_116DsspStorageFrameES3_EvT_S5_RSaIT0_E.exitthread-pre-split.i: ; preds = %_ZSt8_DestroyIN3gmx15analysismodules12_GLOBAL__N_116DsspStorageFrameEEvPT_.exit.i.i.i.i
  %.val.pr.i = load ptr, ptr %0, align 8, !tbaa !80
  br label %_ZSt8_DestroyIPN3gmx15analysismodules12_GLOBAL__N_116DsspStorageFrameES3_EvT_S5_RSaIT0_E.exit.i

_ZSt8_DestroyIPN3gmx15analysismodules12_GLOBAL__N_116DsspStorageFrameES3_EvT_S5_RSaIT0_E.exit.i: ; preds = %_ZSt8_DestroyIPN3gmx15analysismodules12_GLOBAL__N_116DsspStorageFrameES3_EvT_S5_RSaIT0_E.exitthread-pre-split.i, %1
  %.val.i = phi ptr [ %.val.pr.i, %_ZSt8_DestroyIPN3gmx15analysismodules12_GLOBAL__N_116DsspStorageFrameES3_EvT_S5_RSaIT0_E.exitthread-pre-split.i ], [ %2, %1 ]
  %.not.i.i.i = icmp eq ptr %.val.i, null
  br i1 %.not.i.i.i, label %_ZNSt6vectorIN3gmx15analysismodules12_GLOBAL__N_116DsspStorageFrameESaIS3_EED2Ev.exit, label %15

15:                                               ; preds = %_ZSt8_DestroyIPN3gmx15analysismodules12_GLOBAL__N_116DsspStorageFrameES3_EvT_S5_RSaIT0_E.exit.i
  %16 = getelementptr inbounds nuw i8, ptr %0, i64 16
  %.val1.i = load ptr, ptr %16, align 8, !tbaa !84
  %17 = ptrtoint ptr %.val1.i to i64
  %18 = ptrtoint ptr %.val.i to i64
  %19 = sub i64 %17, %18
  tail call void @_ZdlPvm(ptr noundef nonnull %.val.i, i64 noundef %19) #32
  br label %_ZNSt6vectorIN3gmx15analysismodules12_GLOBAL__N_116DsspStorageFrameESaIS3_EED2Ev.exit

_ZNSt6vectorIN3gmx15analysismodules12_GLOBAL__N_116DsspStorageFrameESaIS3_EED2Ev.exit: ; preds = %_ZSt8_DestroyIPN3gmx15analysismodules12_GLOBAL__N_116DsspStorageFrameES3_EvT_S5_RSaIT0_E.exit.i, %15
  ret void
}